; Function Attrs: nounwind uwtable
define noalias nonnull ptr @l_Lean_Compiler_LCNF_withParams(ptr noundef readnone captures(none) %0, ptr noundef readnone captures(none) %1) local_unnamed_addr #0 {
  tail call void @lean_inc_heartbeat() #4
  %3 = tail call noalias ptr @mi_malloc_small(i64 noundef 24) #4
  %4 = icmp eq ptr %3, null
  br i1 %4, label %5, label %lean_alloc_closure.exit

5:                                                ; preds = %2
  tail call void @lean_internal_panic_out_of_memory() #5
  unreachable

lean_alloc_closure.exit:                          ; preds = %2
  %6 = getelementptr inbounds nuw i8, ptr %3, i64 4
  store i32 1, ptr %3, align 4, !tbaa !4
  store i32 -184549352, ptr %6, align 4
  %7 = getelementptr inbounds nuw i8, ptr %3, i64 8
  store ptr @l_Lean_Compiler_LCNF_withParams___rarg___boxed, ptr %7, align 8, !tbaa !9
  %8 = getelementptr inbounds nuw i8, ptr %3, i64 16
  store i16 4, ptr %8, align 8, !tbaa !11
  %9 = getelementptr inbounds nuw i8, ptr %3, i64 18
  store i16 0, ptr %9, align 2, !tbaa !11
  ret ptr %3
}